target datalayout = "e-m:e-p270:32:32-p271:32:32-p272:64:64-i64:64-i128:128-f80:128-n8:16:32:64-S128"
target triple = "x86_64-pc-linux-gnu"

%class.b3Vector3 = type { %union.anon }
%union.anon = type { [4 x float] }
%class.b3Matrix3x3 = type { [3 x %class.b3Vector3] }

; Function Attrs: inlinehint mustprogress nounwind uwtable
define linkonce_odr dso_local void @_ZN9b3Vector38setValueERKfS1_S1_(ptr noundef nonnull align 16 dereferenceable(16) %0, ptr noundef nonnull align 4 dereferenceable(4) %1, ptr noundef nonnull align 4 dereferenceable(4) %2, ptr noundef nonnull align 4 dereferenceable(4) %3) #8 comdat align 2 {
  %5 = alloca ptr, align 8
  %6 = alloca ptr, align 8
  %7 = alloca ptr, align 8
  %8 = alloca ptr, align 8
  store ptr %0, ptr %5, align 8, !tbaa !106
  store ptr %1, ptr %6, align 8, !tbaa !113
  store ptr %2, ptr %7, align 8, !tbaa !113
  store ptr %3, ptr %8, align 8, !tbaa !113
  %9 = load ptr, ptr %5, align 8
  %10 = load ptr, ptr %6, align 8, !tbaa !113
  %11 = load float, ptr %10, align 4, !tbaa !102
  %12 = getelementptr inbounds nuw %class.b3Vector3, ptr %9, i32 0, i32 0
  %13 = getelementptr inbounds [4 x float], ptr %12, i64 0, i64 0
  store float %11, ptr %13, align 16, !tbaa !111
  %14 = load ptr, ptr %7, align 8, !tbaa !113
  %15 = load float, ptr %14, align 4, !tbaa !102
  %16 = getelementptr inbounds nuw %class.b3Vector3, ptr %9, i32 0, i32 0
  %17 = getelementptr inbounds [4 x float], ptr %16, i64 0, i64 1
  store float %15, ptr %17, align 4, !tbaa !111
  %18 = load ptr, ptr %8, align 8, !tbaa !113
  %19 = load float, ptr %18, align 4, !tbaa !102
  %20 = getelementptr inbounds nuw %class.b3Vector3, ptr %9, i32 0, i32 0
  %21 = getelementptr inbounds [4 x float], ptr %20, i64 0, i64 2
  store float %19, ptr %21, align 8, !tbaa !111
  %22 = getelementptr inbounds nuw %class.b3Vector3, ptr %9, i32 0, i32 0
  %23 = getelementptr inbounds [4 x float], ptr %22, i64 0, i64 3
  store float 0.000000e+00, ptr %23, align 4, !tbaa !111
  ret void
}

; Function Attrs: inlinehint mustprogress uwtable
define linkonce_odr dso_local { <2 x float>, <2 x float> } @_Z13b3MakeVector3fff(float noundef %0, float noundef %1, float noundef %2) #2 comdat {
  %4 = alloca %class.b3Vector3, align 16
  %5 = alloca float, align 4
  %6 = alloca float, align 4
  %7 = alloca float, align 4
  store float %0, ptr %5, align 4, !tbaa !102
  store float %1, ptr %6, align 4, !tbaa !102
  store float %2, ptr %7, align 4, !tbaa !102
  call void @_ZN9b3Vector38setValueERKfS1_S1_(ptr noundef nonnull align 16 dereferenceable(16) %4, ptr noundef nonnull align 4 dereferenceable(4) %5, ptr noundef nonnull align 4 dereferenceable(4) %6, ptr noundef nonnull align 4 dereferenceable(4) %7)
  %8 = getelementptr inbounds nuw %class.b3Vector3, ptr %4, i32 0, i32 0
  %9 = getelementptr inbounds nuw %union.anon, ptr %8, i32 0, i32 0
  %10 = load { <2 x float>, <2 x float> }, ptr %9, align 16
  ret { <2 x float>, <2 x float> } %10
}

; Function Attrs: inlinehint mustprogress nounwind uwtable
define linkonce_odr dso_local noundef nonnull align 16 dereferenceable(16) ptr @_ZNK11b3Matrix3x3ixEi(ptr noundef nonnull align 16 dereferenceable(48) %0, i32 noundef %1) #8 comdat align 2 {
  %3 = alloca ptr, align 8
  %4 = alloca i32, align 4
  store ptr %0, ptr %3, align 8, !tbaa !107
  store i32 %1, ptr %4, align 4, !tbaa !15
  %5 = load ptr, ptr %3, align 8
  %6 = getelementptr inbounds nuw %class.b3Matrix3x3, ptr %5, i32 0, i32 0
  %7 = load i32, ptr %4, align 4, !tbaa !15
  %8 = sext i32 %7 to i64
  %9 = getelementptr inbounds [3 x %class.b3Vector3], ptr %6, i64 0, i64 %8
  ret ptr %9
}

; Function Attrs: inlinehint mustprogress nounwind uwtable
define linkonce_odr dso_local noundef float @_ZNK9b3Vector33dotERKS_(ptr noundef nonnull align 16 dereferenceable(16) %0, ptr noundef nonnull align 16 dereferenceable(16) %1) #8 comdat align 2 {
  %3 = alloca ptr, align 8
  %4 = alloca ptr, align 8
  store ptr %0, ptr %3, align 8, !tbaa !106
  store ptr %1, ptr %4, align 8, !tbaa !106
  %5 = load ptr, ptr %3, align 8
  %6 = getelementptr inbounds nuw %class.b3Vector3, ptr %5, i32 0, i32 0
  %7 = getelementptr inbounds [4 x float], ptr %6, i64 0, i64 0
  %8 = load float, ptr %7, align 16, !tbaa !111
  %9 = load ptr, ptr %4, align 8, !tbaa !106
  %10 = getelementptr inbounds nuw %class.b3Vector3, ptr %9, i32 0, i32 0
  %11 = getelementptr inbounds [4 x float], ptr %10, i64 0, i64 0
  %12 = load float, ptr %11, align 16, !tbaa !111
  %13 = getelementptr inbounds nuw %class.b3Vector3, ptr %5, i32 0, i32 0
  %14 = getelementptr inbounds [4 x float], ptr %13, i64 0, i64 1
  %15 = load float, ptr %14, align 4, !tbaa !111
  %16 = load ptr, ptr %4, align 8, !tbaa !106
  %17 = getelementptr inbounds nuw %class.b3Vector3, ptr %16, i32 0, i32 0
  %18 = getelementptr inbounds [4 x float], ptr %17, i64 0, i64 1
  %19 = load float, ptr %18, align 4, !tbaa !111
  %20 = fmul float %15, %19
  %21 = call float @llvm.fmuladd.f32(float %8, float %12, float %20)
  %22 = getelementptr inbounds nuw %class.b3Vector3, ptr %5, i32 0, i32 0
  %23 = getelementptr inbounds [4 x float], ptr %22, i64 0, i64 2
  %24 = load float, ptr %23, align 8, !tbaa !111
  %25 = load ptr, ptr %4, align 8, !tbaa !106
  %26 = getelementptr inbounds nuw %class.b3Vector3, ptr %25, i32 0, i32 0
  %27 = getelementptr inbounds [4 x float], ptr %26, i64 0, i64 2
  %28 = load float, ptr %27, align 8, !tbaa !111
  %29 = call float @llvm.fmuladd.f32(float %24, float %28, float %21)
  ret float %29
}

; Function Attrs: inlinehint mustprogress uwtable
define linkonce_odr dso_local { <2 x float>, <2 x float> } @_ZmlRK11b3Matrix3x3RK9b3Vector3(ptr noundef nonnull align 16 dereferenceable(48) %0, ptr noundef nonnull align 16 dereferenceable(16) %1) #10 comdat {
  %3 = alloca %class.b3Vector3, align 16
  %4 = alloca ptr, align 8
  %5 = alloca ptr, align 8
  store ptr %0, ptr %4, align 8, !tbaa !107
  store ptr %1, ptr %5, align 8, !tbaa !106
  %6 = load ptr, ptr %4, align 8, !tbaa !107
  %7 = call noundef nonnull align 16 dereferenceable(16) ptr @_ZNK11b3Matrix3x3ixEi(ptr noundef nonnull align 16 dereferenceable(48) %6, i32 noundef 0)
  %8 = load ptr, ptr %5, align 8, !tbaa !106
  %9 = call noundef float @_ZNK9b3Vector33dotERKS_(ptr noundef nonnull align 16 dereferenceable(16) %7, ptr noundef nonnull align 16 dereferenceable(16) %8)
  %10 = load ptr, ptr %4, align 8, !tbaa !107
  %11 = call noundef nonnull align 16 dereferenceable(16) ptr @_ZNK11b3Matrix3x3ixEi(ptr noundef nonnull align 16 dereferenceable(48) %10, i32 noundef 1)
  %12 = load ptr, ptr %5, align 8, !tbaa !106
  %13 = call noundef float @_ZNK9b3Vector33dotERKS_(ptr noundef nonnull align 16 dereferenceable(16) %11, ptr noundef nonnull align 16 dereferenceable(16) %12)
  %14 = load ptr, ptr %4, align 8, !tbaa !107
  %15 = call noundef nonnull align 16 dereferenceable(16) ptr @_ZNK11b3Matrix3x3ixEi(ptr noundef nonnull align 16 dereferenceable(48) %14, i32 noundef 2)
  %16 = load ptr, ptr %5, align 8, !tbaa !106
  %17 = call noundef float @_ZNK9b3Vector33dotERKS_(ptr noundef nonnull align 16 dereferenceable(16) %15, ptr noundef nonnull align 16 dereferenceable(16) %16)
  %18 = call { <2 x float>, <2 x float> } @_Z13b3MakeVector3fff(float noundef %9, float noundef %13, float noundef %17)
  %19 = getelementptr inbounds nuw %class.b3Vector3, ptr %3, i32 0, i32 0
  %20 = getelementptr inbounds nuw %union.anon, ptr %19, i32 0, i32 0
  %21 = getelementptr inbounds nuw { <2 x float>, <2 x float> }, ptr %20, i32 0, i32 0
  %22 = extractvalue { <2 x float>, <2 x float> } %18, 0
  store <2 x float> %22, ptr %21, align 16
  %23 = getelementptr inbounds nuw { <2 x float>, <2 x float> }, ptr %20, i32 0, i32 1
  %24 = extractvalue { <2 x float>, <2 x float> } %18, 1
  store <2 x float> %24, ptr %23, align 8
  %25 = getelementptr inbounds nuw %class.b3Vector3, ptr %3, i32 0, i32 0
  %26 = getelementptr inbounds nuw %union.anon, ptr %25, i32 0, i32 0
  %27 = load { <2 x float>, <2 x float> }, ptr %26, align 16
  ret { <2 x float>, <2 x float> } %27
}

; Function Attrs: inlinehint mustprogress nounwind uwtable
define linkonce_odr dso_local noundef float @_Z5b3DotRK9b3Vector3S1_(ptr noundef nonnull align 16 dereferenceable(16) %0, ptr noundef nonnull align 16 dereferenceable(16) %1) #8 comdat {
  %3 = alloca ptr, align 8
  %4 = alloca ptr, align 8
  store ptr %0, ptr %3, align 8, !tbaa !106
  store ptr %1, ptr %4, align 8, !tbaa !106
  %5 = load ptr, ptr %3, align 8, !tbaa !106
  %6 = load ptr, ptr %4, align 8, !tbaa !106
  %7 = call noundef float @_ZNK9b3Vector33dotERKS_(ptr noundef nonnull align 16 dereferenceable(16) %5, ptr noundef nonnull align 16 dereferenceable(16) %6)
  ret float %7
}

; Function Attrs: inlinehint mustprogress uwtable
define linkonce_odr dso_local { <2 x float>, <2 x float> } @_Z6mtMul3RK9b3Vector3RK11b3Matrix3x3(ptr noundef nonnull align 16 dereferenceable(16) %0, ptr noundef nonnull align 16 dereferenceable(48) %1) #10 comdat {
  %3 = alloca %class.b3Vector3, align 16
  %4 = alloca ptr, align 8
  %5 = alloca ptr, align 8
  store ptr %0, ptr %4, align 8, !tbaa !106
  store ptr %1, ptr %5, align 8, !tbaa !107
  %6 = load ptr, ptr %5, align 8, !tbaa !107
  %7 = load ptr, ptr %4, align 8, !tbaa !106
  %8 = call { <2 x float>, <2 x float> } @_ZmlRK11b3Matrix3x3RK9b3Vector3(ptr noundef nonnull align 16 dereferenceable(48) %6, ptr noundef nonnull align 16 dereferenceable(16) %7)
  %9 = getelementptr inbounds nuw %class.b3Vector3, ptr %3, i32 0, i32 0
  %10 = getelementptr inbounds nuw %union.anon, ptr %9, i32 0, i32 0
  %11 = getelementptr inbounds nuw { <2 x float>, <2 x float> }, ptr %10, i32 0, i32 0
  %12 = extractvalue { <2 x float>, <2 x float> } %8, 0
  store <2 x float> %12, ptr %11, align 16
  %13 = getelementptr inbounds nuw { <2 x float>, <2 x float> }, ptr %10, i32 0, i32 1
  %14 = extractvalue { <2 x float>, <2 x float> } %8, 1
  store <2 x float> %14, ptr %13, align 8
  %15 = getelementptr inbounds nuw %class.b3Vector3, ptr %3, i32 0, i32 0
  %16 = getelementptr inbounds nuw %union.anon, ptr %15, i32 0, i32 0
  %17 = load { <2 x float>, <2 x float> }, ptr %16, align 16
  ret { <2 x float>, <2 x float> } %17
}

; Function Attrs: mustprogress uwtable
define dso_local noundef float @_Z12calcJacCoeffRK9b3Vector3S1_S1_S1_fPK11b3Matrix3x3fS4_ff(ptr noundef nonnull align 16 dereferenceable(16) %0, ptr noundef nonnull align 16 dereferenceable(16) %1, ptr noundef nonnull align 16 dereferenceable(16) %2, ptr noundef nonnull align 16 dereferenceable(16) %3, float noundef %4, ptr noundef %5, float noundef %6, ptr noundef %7, float noundef %8, float noundef %9) #9 {
  %11 = alloca ptr, align 8
  %12 = alloca ptr, align 8
  %13 = alloca ptr, align 8
  %14 = alloca ptr, align 8
  %15 = alloca float, align 4
  %16 = alloca ptr, align 8
  %17 = alloca float, align 4
  %18 = alloca ptr, align 8
  %19 = alloca float, align 4
  %20 = alloca float, align 4
  %21 = alloca float, align 4
  %22 = alloca float, align 4
  %23 = alloca %class.b3Vector3, align 16
  %24 = alloca float, align 4
  %25 = alloca float, align 4
  %26 = alloca %class.b3Vector3, align 16
  store ptr %0, ptr %11, align 8, !tbaa !106
  store ptr %1, ptr %12, align 8, !tbaa !106
  store ptr %2, ptr %13, align 8, !tbaa !106
  store ptr %3, ptr %14, align 8, !tbaa !106
  store float %4, ptr %15, align 4, !tbaa !102
  store ptr %5, ptr %16, align 8, !tbaa !107
  store float %6, ptr %17, align 4, !tbaa !102
  store ptr %7, ptr %18, align 8, !tbaa !107
  store float %8, ptr %19, align 4, !tbaa !102
  store float %9, ptr %20, align 4, !tbaa !102
  call void @llvm.lifetime.start.p0(i64 4, ptr %21) #16
  %27 = load float, ptr %15, align 4, !tbaa !102
  store float %27, ptr %21, align 4, !tbaa !102
  call void @llvm.lifetime.start.p0(i64 4, ptr %22) #16
  call void @llvm.lifetime.start.p0(i64 16, ptr %23) #16
  %28 = load ptr, ptr %13, align 8, !tbaa !106
  %29 = load ptr, ptr %16, align 8, !tbaa !107
  %30 = call { <2 x float>, <2 x float> } @_Z6mtMul3RK9b3Vector3RK11b3Matrix3x3(ptr noundef nonnull align 16 dereferenceable(16) %28, ptr noundef nonnull align 16 dereferenceable(48) %29)
  %31 = getelementptr inbounds nuw %class.b3Vector3, ptr %23, i32 0, i32 0
  %32 = getelementptr inbounds nuw %union.anon, ptr %31, i32 0, i32 0
  %33 = getelementptr inbounds nuw { <2 x float>, <2 x float> }, ptr %32, i32 0, i32 0
  %34 = extractvalue { <2 x float>, <2 x float> } %30, 0
  store <2 x float> %34, ptr %33, align 16
  %35 = getelementptr inbounds nuw { <2 x float>, <2 x float> }, ptr %32, i32 0, i32 1
  %36 = extractvalue { <2 x float>, <2 x float> } %30, 1
  store <2 x float> %36, ptr %35, align 8
  %37 = load ptr, ptr %13, align 8, !tbaa !106
  %38 = call noundef float @_Z5b3DotRK9b3Vector3S1_(ptr noundef nonnull align 16 dereferenceable(16) %23, ptr noundef nonnull align 16 dereferenceable(16) %37)
  call void @llvm.lifetime.end.p0(i64 16, ptr %23) #16
  store float %38, ptr %22, align 4, !tbaa !102
  call void @llvm.lifetime.start.p0(i64 4, ptr %24) #16
  %39 = load float, ptr %17, align 4, !tbaa !102
  store float %39, ptr %24, align 4, !tbaa !102
  call void @llvm.lifetime.start.p0(i64 4, ptr %25) #16
  call void @llvm.lifetime.start.p0(i64 16, ptr %26) #16
  %40 = load ptr, ptr %14, align 8, !tbaa !106
  %41 = load ptr, ptr %18, align 8, !tbaa !107
  %42 = call { <2 x float>, <2 x float> } @_Z6mtMul3RK9b3Vector3RK11b3Matrix3x3(ptr noundef nonnull align 16 dereferenceable(16) %40, ptr noundef nonnull align 16 dereferenceable(48) %41)
  %43 = getelementptr inbounds nuw %class.b3Vector3, ptr %26, i32 0, i32 0
  %44 = getelementptr inbounds nuw %union.anon, ptr %43, i32 0, i32 0
  %45 = getelementptr inbounds nuw { <2 x float>, <2 x float> }, ptr %44, i32 0, i32 0
  %46 = extractvalue { <2 x float>, <2 x float> } %42, 0
  store <2 x float> %46, ptr %45, align 16
  %47 = getelementptr inbounds nuw { <2 x float>, <2 x float> }, ptr %44, i32 0, i32 1
  %48 = extractvalue { <2 x float>, <2 x float> } %42, 1
  store <2 x float> %48, ptr %47, align 8
  %49 = load ptr, ptr %14, align 8, !tbaa !106
  %50 = call noundef float @_Z5b3DotRK9b3Vector3S1_(ptr noundef nonnull align 16 dereferenceable(16) %26, ptr noundef nonnull align 16 dereferenceable(16) %49)
  call void @llvm.lifetime.end.p0(i64 16, ptr %26) #16
  store float %50, ptr %25, align 4, !tbaa !102
  %51 = load float, ptr %21, align 4, !tbaa !102
  %52 = load float, ptr %22, align 4, !tbaa !102
  %53 = fadd float %51, %52
  %54 = load float, ptr %19, align 4, !tbaa !102
  %55 = load float, ptr %24, align 4, !tbaa !102
  %56 = load float, ptr %25, align 4, !tbaa !102
  %57 = fadd float %55, %56
  %58 = load float, ptr %20, align 4, !tbaa !102
  %59 = fmul float %57, %58
  %60 = call float @llvm.fmuladd.f32(float %53, float %54, float %59)
  %61 = fdiv float -1.000000e+00, %60
  call void @llvm.lifetime.end.p0(i64 4, ptr %25) #16
  call void @llvm.lifetime.end.p0(i64 4, ptr %24) #16
  call void @llvm.lifetime.end.p0(i64 4, ptr %22) #16
  call void @llvm.lifetime.end.p0(i64 4, ptr %21) #16
  ret float %61
}