; Function Attrs: mustprogress nofree norecurse nosync nounwind willreturn memory(argmem: read) uwtable
define dso_local noundef float @_Z12calcJacCoeffRK9b3Vector3S1_S1_S1_fPK11b3Matrix3x3fS4_ff(ptr noundef nonnull readnone align 16 captures(none) dereferenceable(16) %0, ptr noundef nonnull readnone align 16 captures(none) dereferenceable(16) %1, ptr noundef nonnull readonly align 16 captures(none) dereferenceable(16) %2, ptr noundef nonnull readonly align 16 captures(none) dereferenceable(16) %3, float noundef %4, ptr noundef readonly captures(none) %5, float noundef %6, ptr noundef readonly captures(none) %7, float noundef %8, float noundef %9) local_unnamed_addr #10 {
  %11 = load float, ptr %5, align 16, !tbaa !77
  %12 = load float, ptr %2, align 16, !tbaa !77
  %13 = getelementptr inbounds nuw i8, ptr %5, i64 4
  %14 = load float, ptr %13, align 4, !tbaa !77
  %15 = getelementptr inbounds nuw i8, ptr %2, i64 4
  %16 = load float, ptr %15, align 4, !tbaa !77
  %17 = fmul float %14, %16
  %18 = tail call float @llvm.fmuladd.f32(float %11, float %12, float %17)
  %19 = getelementptr inbounds nuw i8, ptr %5, i64 8
  %20 = load float, ptr %19, align 8, !tbaa !77
  %21 = getelementptr inbounds nuw i8, ptr %2, i64 8
  %22 = load float, ptr %21, align 8, !tbaa !77
  %23 = tail call noundef float @llvm.fmuladd.f32(float %20, float %22, float %18)
  %24 = getelementptr inbounds nuw i8, ptr %5, i64 16
  %25 = load float, ptr %24, align 16, !tbaa !77
  %26 = getelementptr inbounds nuw i8, ptr %5, i64 20
  %27 = load float, ptr %26, align 4, !tbaa !77
  %28 = fmul float %16, %27
  %29 = tail call float @llvm.fmuladd.f32(float %25, float %12, float %28)
  %30 = getelementptr inbounds nuw i8, ptr %5, i64 24
  %31 = load float, ptr %30, align 8, !tbaa !77
  %32 = tail call noundef float @llvm.fmuladd.f32(float %31, float %22, float %29)
  %33 = getelementptr inbounds nuw i8, ptr %5, i64 32
  %34 = load float, ptr %33, align 16, !tbaa !77
  %35 = getelementptr inbounds nuw i8, ptr %5, i64 36
  %36 = load float, ptr %35, align 4, !tbaa !77
  %37 = fmul float %16, %36
  %38 = tail call float @llvm.fmuladd.f32(float %34, float %12, float %37)
  %39 = getelementptr inbounds nuw i8, ptr %5, i64 40
  %40 = load float, ptr %39, align 8, !tbaa !77
  %41 = tail call noundef float @llvm.fmuladd.f32(float %40, float %22, float %38)
  %42 = fmul float %16, %32
  %43 = tail call float @llvm.fmuladd.f32(float %23, float %12, float %42)
  %44 = tail call noundef float @llvm.fmuladd.f32(float %41, float %22, float %43)
  %45 = load float, ptr %7, align 16, !tbaa !77
  %46 = load float, ptr %3, align 16, !tbaa !77
  %47 = getelementptr inbounds nuw i8, ptr %7, i64 4
  %48 = load float, ptr %47, align 4, !tbaa !77
  %49 = getelementptr inbounds nuw i8, ptr %3, i64 4
  %50 = load float, ptr %49, align 4, !tbaa !77
  %51 = fmul float %48, %50
  %52 = tail call float @llvm.fmuladd.f32(float %45, float %46, float %51)
  %53 = getelementptr inbounds nuw i8, ptr %7, i64 8
  %54 = load float, ptr %53, align 8, !tbaa !77
  %55 = getelementptr inbounds nuw i8, ptr %3, i64 8
  %56 = load float, ptr %55, align 8, !tbaa !77
  %57 = tail call noundef float @llvm.fmuladd.f32(float %54, float %56, float %52)
  %58 = getelementptr inbounds nuw i8, ptr %7, i64 16
  %59 = load float, ptr %58, align 16, !tbaa !77
  %60 = getelementptr inbounds nuw i8, ptr %7, i64 20
  %61 = load float, ptr %60, align 4, !tbaa !77
  %62 = fmul float %50, %61
  %63 = tail call float @llvm.fmuladd.f32(float %59, float %46, float %62)
  %64 = getelementptr inbounds nuw i8, ptr %7, i64 24
  %65 = load float, ptr %64, align 8, !tbaa !77
  %66 = tail call noundef float @llvm.fmuladd.f32(float %65, float %56, float %63)
  %67 = getelementptr inbounds nuw i8, ptr %7, i64 32
  %68 = load float, ptr %67, align 16, !tbaa !77
  %69 = getelementptr inbounds nuw i8, ptr %7, i64 36
  %70 = load float, ptr %69, align 4, !tbaa !77
  %71 = fmul float %50, %70
  %72 = tail call float @llvm.fmuladd.f32(float %68, float %46, float %71)
  %73 = getelementptr inbounds nuw i8, ptr %7, i64 40
  %74 = load float, ptr %73, align 8, !tbaa !77
  %75 = tail call noundef float @llvm.fmuladd.f32(float %74, float %56, float %72)
  %76 = fmul float %50, %66
  %77 = tail call float @llvm.fmuladd.f32(float %57, float %46, float %76)
  %78 = tail call noundef float @llvm.fmuladd.f32(float %75, float %56, float %77)
  %79 = fadd float %4, %44
  %80 = fadd float %6, %78
  %81 = fmul float %9, %80
  %82 = tail call float @llvm.fmuladd.f32(float %79, float %8, float %81)
  %83 = fdiv float -1.000000e+00, %82
  ret float %83
}